; Function Attrs: mustprogress uwtable
define dso_local noundef zeroext i1 @_ZN28cmQtAutoGenGlobalInitializer18SetupCustomTargetsEv(ptr nocapture noundef nonnull readonly align 8 dereferenceable(680) %0) local_unnamed_addr #3 align 2 {
  %2 = load ptr, ptr %0, align 8
  %3 = getelementptr inbounds i8, ptr %0, i64 8
  %4 = load ptr, ptr %3, align 8
  %.not8 = icmp eq ptr %2, %4
  br i1 %.not8, label %._crit_edge, label %.lr.ph

.lr.ph:                                           ; preds = %1, %.lr.ph
  %.sroa.05.09 = phi ptr [ %7, %.lr.ph ], [ %2, %1 ]
  %5 = load ptr, ptr %.sroa.05.09, align 8
  %6 = tail call noundef zeroext i1 @_ZN22cmQtAutoGenInitializer18SetupCustomTargetsEv(ptr noundef nonnull align 8 dereferenceable(2832) %5)
  %7 = getelementptr inbounds i8, ptr %.sroa.05.09, i64 8
  %.not = icmp ne ptr %7, %4
  %or.cond.not = select i1 %6, i1 %.not, i1 false
  br i1 %or.cond.not, label %.lr.ph, label %._crit_edge

._crit_edge:                                      ; preds = %.lr.ph, %1
  %.not.lcssa = phi i1 [ true, %1 ], [ %6, %.lr.ph ]
  ret i1 %.not.lcssa
}